; Function Attrs: inlinehint mustprogress nounwind uwtable
define internal void @_ZN9grpc_core12_GLOBAL__N_129ServiceConfigChannelArgFilterD0Ev(ptr noundef nonnull align 8 dereferenceable(16) %0) unnamed_addr #15 align 2 personality ptr @__gxx_personality_v0 {
  %2 = getelementptr inbounds nuw i8, ptr %0, i64 8
  %3 = load ptr, ptr %2, align 8, !tbaa !80
  %.not.i.i = icmp eq ptr %3, null
  br i1 %.not.i.i, label %_ZN9grpc_core12_GLOBAL__N_129ServiceConfigChannelArgFilterD2Ev.exit, label %4

4:                                                ; preds = %1
  %5 = getelementptr inbounds nuw i8, ptr %3, i64 8
  %6 = atomicrmw sub ptr %5, i64 1 acq_rel, align 8
  %7 = icmp eq i64 %6, 1
  br i1 %7, label %8, label %_ZN9grpc_core12_GLOBAL__N_129ServiceConfigChannelArgFilterD2Ev.exit, !prof !83

8:                                                ; preds = %4
  %9 = load ptr, ptr %3, align 8, !tbaa !21
  %10 = getelementptr inbounds nuw i8, ptr %9, i64 8
  %11 = load ptr, ptr %10, align 8
  tail call void %11(ptr noundef nonnull align 8 dereferenceable(16) %3) #30
  br label %_ZN9grpc_core12_GLOBAL__N_129ServiceConfigChannelArgFilterD2Ev.exit

_ZN9grpc_core12_GLOBAL__N_129ServiceConfigChannelArgFilterD2Ev.exit: ; preds = %1, %4, %8
  tail call void @_ZdlPvm(ptr noundef nonnull %0, i64 noundef 16) #33
  ret void
}